; Function Attrs: mustprogress uwtable
define hidden void @_ZN3nla5order11order_lemmaEv(ptr noundef nonnull align 8 dereferenceable(184) %0) local_unnamed_addr #4 align 2 {
  %2 = load ptr, ptr %0, align 8, !tbaa !3
  %3 = getelementptr inbounds nuw i8, ptr %2, i64 208
  %4 = load ptr, ptr %3, align 8, !tbaa !36
  %5 = getelementptr inbounds nuw i8, ptr %2, i64 216
  %6 = tail call noundef zeroext i1 @_ZNK10params_ref8get_boolEPKcRKS_b(ptr noundef nonnull align 8 dereferenceable(8) %4, ptr noundef nonnull @.str.10, ptr noundef nonnull align 8 dereferenceable(8) %5, i1 noundef zeroext true)
  br i1 %6, label %7, label %.critedge

7:                                                ; preds = %1
  %8 = load ptr, ptr %0, align 8, !tbaa !3
  %9 = getelementptr inbounds nuw i8, ptr %8, i64 288
  %10 = tail call noundef i32 @_ZN3nla6common6randomEv(ptr noundef nonnull align 8 dereferenceable(184) %0)
  %11 = load i32, ptr %9, align 8, !tbaa !41
  %.not = icmp eq i32 %11, 0
  br i1 %.not, label %.critedge, label %.lr.ph

.lr.ph:                                           ; preds = %7
  %12 = getelementptr inbounds nuw i8, ptr %8, i64 296
  br label %13

13:                                               ; preds = %.lr.ph, %15
  %.010 = phi i32 [ 0, %.lr.ph ], [ %32, %15 ]
  %14 = tail call noundef zeroext i1 @_ZNK3nla6common4doneEv(ptr noundef nonnull align 8 dereferenceable(184) %0)
  br i1 %14, label %.critedge, label %15

15:                                               ; preds = %13
  %16 = add i32 %.010, %10
  %17 = urem i32 %16, %11
  %18 = load ptr, ptr %12, align 8, !tbaa !43
  %19 = zext i32 %17 to i64
  %20 = getelementptr inbounds nuw i32, ptr %18, i64 %19
  %21 = load i32, ptr %20, align 4, !tbaa !44
  %22 = load ptr, ptr %0, align 8, !tbaa !3
  %23 = getelementptr inbounds nuw i8, ptr %22, i64 4544
  %24 = getelementptr inbounds nuw i8, ptr %22, i64 4552
  %25 = load ptr, ptr %24, align 8, !tbaa !43
  %26 = zext i32 %21 to i64
  %27 = getelementptr inbounds nuw i32, ptr %25, i64 %26
  %28 = load i32, ptr %27, align 4, !tbaa !44
  %29 = load ptr, ptr %23, align 8, !tbaa !45
  %30 = zext i32 %28 to i64
  %31 = getelementptr inbounds nuw %"class.nla::monic", ptr %29, i64 %30
  tail call void @_ZN3nla5order20order_lemma_on_monicERKNS_5monicE(ptr noundef nonnull align 8 dereferenceable(184) %0, ptr noundef nonnull align 8 dereferenceable(34) %31)
  %32 = add nuw i32 %.010, 1
  %exitcond.not = icmp eq i32 %32, %11
  br i1 %exitcond.not, label %.critedge, label %13, !llvm.loop !48

.critedge:                                        ; preds = %15, %13, %7, %1
  ret void
}